target datalayout = "e-m:e-p270:32:32-p271:32:32-p272:64:64-i64:64-i128:128-f80:128-n8:16:32:64-S128"
target triple = "x86_64-pc-linux-gnu"

%struct.git_zstream = type { %struct.z_stream_s, i64, i64, i64, i64, ptr, ptr }
%struct.z_stream_s = type { ptr, i32, i64, ptr, i32, i64, ptr, ptr, ptr, ptr, ptr, i32, i64, i64 }

@.str.2 = private unnamed_addr constant [11 x i8] c"no message\00", align 1
@.str.8 = private unnamed_addr constant [20 x i8] c"deflateEnd: %s (%s)\00", align 1
@.str.14 = private unnamed_addr constant [14 x i8] c"out of memory\00", align 1
@.str.15 = private unnamed_addr constant [14 x i8] c"wrong version\00", align 1
@.str.16 = private unnamed_addr constant [17 x i8] c"needs dictionary\00", align 1
@.str.17 = private unnamed_addr constant [18 x i8] c"data stream error\00", align 1
@.str.18 = private unnamed_addr constant [25 x i8] c"stream consistency error\00", align 1
@.str.19 = private unnamed_addr constant [14 x i8] c"unknown error\00", align 1

; Function Attrs: inlinehint nounwind uwtable
define internal i32 @const_error() #4 {
  ret i32 -1
}

; Function Attrs: nounwind uwtable
define internal ptr @zerr_to_string(i32 noundef %0) #0 {
  %2 = alloca ptr, align 8
  %3 = alloca i32, align 4
  store i32 %0, ptr %3, align 4, !tbaa !9
  %4 = load i32, ptr %3, align 4, !tbaa !9
  switch i32 %4, label %10 [
    i32 -4, label %5
    i32 -6, label %6
    i32 2, label %7
    i32 -3, label %8
    i32 -2, label %9
  ]

5:                                                ; preds = %1
  store ptr @.str.14, ptr %2, align 8
  br label %11

6:                                                ; preds = %1
  store ptr @.str.15, ptr %2, align 8
  br label %11

7:                                                ; preds = %1
  store ptr @.str.16, ptr %2, align 8
  br label %11

8:                                                ; preds = %1
  store ptr @.str.17, ptr %2, align 8
  br label %11

9:                                                ; preds = %1
  store ptr @.str.18, ptr %2, align 8
  br label %11

10:                                               ; preds = %1
  store ptr @.str.19, ptr %2, align 8
  br label %11

11:                                               ; preds = %10, %9, %8, %7, %6, %5
  %12 = load ptr, ptr %2, align 8
  ret ptr %12
}

; Function Attrs: nounwind uwtable
define dso_local void @git_deflate_end(ptr noundef %0) #0 {
  %2 = alloca ptr, align 8
  %3 = alloca i32, align 4
  %4 = alloca i32, align 4
  store ptr %0, ptr %2, align 8, !tbaa !4
  call void @llvm.lifetime.start.p0(i64 4, ptr %3) #6
  %5 = load ptr, ptr %2, align 8, !tbaa !4
  %6 = call i32 @git_deflate_abort(ptr noundef %5)
  store i32 %6, ptr %3, align 4, !tbaa !9
  %7 = load i32, ptr %3, align 4, !tbaa !9
  %8 = icmp eq i32 %7, 0
  br i1 %8, label %9, label %10

9:                                                ; preds = %1
  store i32 1, ptr %4, align 4
  br label %28

10:                                               ; preds = %1
  %11 = load i32, ptr %3, align 4, !tbaa !9
  %12 = call ptr @zerr_to_string(i32 noundef %11)
  %13 = load ptr, ptr %2, align 8, !tbaa !4
  %14 = getelementptr inbounds nuw %struct.git_zstream, ptr %13, i32 0, i32 0
  %15 = getelementptr inbounds nuw %struct.z_stream_s, ptr %14, i32 0, i32 6
  %16 = load ptr, ptr %15, align 8, !tbaa !11
  %17 = icmp ne ptr %16, null
  br i1 %17, label %18, label %23

18:                                               ; preds = %10
  %19 = load ptr, ptr %2, align 8, !tbaa !4
  %20 = getelementptr inbounds nuw %struct.git_zstream, ptr %19, i32 0, i32 0
  %21 = getelementptr inbounds nuw %struct.z_stream_s, ptr %20, i32 0, i32 6
  %22 = load ptr, ptr %21, align 8, !tbaa !11
  br label %24

23:                                               ; preds = %10
  br label %24

24:                                               ; preds = %23, %18
  %25 = phi ptr [ %22, %18 ], [ @.str.2, %23 ]
  %26 = call i32 (ptr, ...) @error(ptr noundef @.str.8, ptr noundef %12, ptr noundef %25)
  %27 = call i32 @const_error()
  store i32 0, ptr %4, align 4
  br label %28

28:                                               ; preds = %24, %9
  call void @llvm.lifetime.end.p0(i64 4, ptr %3) #6
  %29 = load i32, ptr %4, align 4
  switch i32 %29, label %31 [
    i32 0, label %30
    i32 1, label %30
  ]

30:                                               ; preds = %28, %28
  ret void

31:                                               ; preds = %28
  unreachable
}