; Function Attrs: nounwind uwtable
define dso_local void @git_deflate_end(ptr noundef initializes((0, 12), (16, 36), (40, 48)) %0) local_unnamed_addr #0 {
  %2 = tail call i32 @git_deflate_abort(ptr noundef %0)
  switch i32 %2, label %7 [
    i32 0, label %11
    i32 -4, label %zerr_to_string.exit
    i32 -6, label %3
    i32 2, label %4
    i32 -3, label %5
    i32 -2, label %6
  ]

3:                                                ; preds = %1
  br label %zerr_to_string.exit

4:                                                ; preds = %1
  br label %zerr_to_string.exit

5:                                                ; preds = %1
  br label %zerr_to_string.exit

6:                                                ; preds = %1
  br label %zerr_to_string.exit

7:                                                ; preds = %1
  br label %zerr_to_string.exit

zerr_to_string.exit:                              ; preds = %1, %3, %4, %5, %6, %7
  %.0.i = phi ptr [ @.str.19, %7 ], [ @.str.18, %6 ], [ @.str.17, %5 ], [ @.str.16, %4 ], [ @.str.15, %3 ], [ @.str.14, %1 ]
  %8 = getelementptr inbounds nuw i8, ptr %0, i64 48
  %9 = load ptr, ptr %8, align 8, !tbaa !25
  %.not = icmp eq ptr %9, null
  %spec.select = select i1 %.not, ptr @.str.2, ptr %9
  %10 = tail call i32 (ptr, ...) @error(ptr noundef nonnull @.str.8, ptr noundef nonnull %.0.i, ptr noundef nonnull %spec.select) #6
  br label %11

11:                                               ; preds = %1, %zerr_to_string.exit
  ret void
}